; Function Attrs: nounwind uwtable
define ptr @l_Lean_PersistentHashMap_forM___at_Lean_SMap_instForInProd___spec__4___rarg___boxed(ptr noundef %0, ptr noundef %1, ptr readnone captures(none) %2, ptr readnone captures(none) %3, ptr noundef %4, ptr noundef %5, ptr noundef %6, ptr noundef %7) #0 {
  tail call void @lean_inc_heartbeat() #3
  %9 = tail call noalias ptr @mi_malloc_small(i64 noundef 32) #3
  %10 = icmp eq ptr %9, null
  br i1 %10, label %11, label %l_Lean_PersistentHashMap_forM___at_Lean_SMap_instForInProd___spec__4___rarg.exit

11:                                               ; preds = %8
  tail call void @lean_internal_panic_out_of_memory() #4
  unreachable

l_Lean_PersistentHashMap_forM___at_Lean_SMap_instForInProd___spec__4___rarg.exit: ; preds = %8
  %12 = getelementptr inbounds nuw i8, ptr %9, i64 4
  store i32 1, ptr %9, align 4, !tbaa !10
  store i32 -184549344, ptr %12, align 4
  %13 = getelementptr inbounds nuw i8, ptr %9, i64 8
  store ptr @l_Lean_PersistentHashMap_forM___at_Lean_SMap_instForInProd___spec__4___rarg___lambda__1___boxed, ptr %13, align 8, !tbaa !4
  %14 = getelementptr inbounds nuw i8, ptr %9, i64 16
  store i16 5, ptr %14, align 8, !tbaa !13
  %15 = getelementptr inbounds nuw i8, ptr %9, i64 18
  store i16 1, ptr %15, align 2, !tbaa !13
  %16 = getelementptr inbounds nuw i8, ptr %9, i64 24
  store ptr %6, ptr %16, align 8, !tbaa !4
  %17 = tail call ptr @l_Lean_PersistentHashMap_foldlMAux___at_Lean_SMap_instForInProd___spec__6___rarg(ptr noundef %4, ptr nonnull poison, ptr nonnull poison, ptr nonnull poison, ptr noundef nonnull %9, ptr noundef %5, ptr noundef nonnull inttoptr (i64 1 to ptr), ptr noundef %7)
  %18 = ptrtoint ptr %1 to i64
  %19 = and i64 %18, 1
  %.not = icmp eq i64 %19, 0
  br i1 %.not, label %20, label %lean_dec.exit11

20:                                               ; preds = %l_Lean_PersistentHashMap_forM___at_Lean_SMap_instForInProd___spec__4___rarg.exit
  %21 = load i32, ptr %1, align 4, !tbaa !10
  %22 = icmp sgt i32 %21, 1
  br i1 %22, label %23, label %25, !prof !15

23:                                               ; preds = %20
  %24 = add nsw i32 %21, -1
  store i32 %24, ptr %1, align 4, !tbaa !10
  br label %lean_dec.exit11

25:                                               ; preds = %20
  %.not.i = icmp eq i32 %21, 0
  br i1 %.not.i, label %lean_dec.exit11, label %26

26:                                               ; preds = %25
  tail call void @lean_dec_ref_cold(ptr noundef nonnull %1) #3
  br label %lean_dec.exit11

lean_dec.exit11:                                  ; preds = %26, %25, %23, %l_Lean_PersistentHashMap_forM___at_Lean_SMap_instForInProd___spec__4___rarg.exit
  %27 = ptrtoint ptr %0 to i64
  %28 = and i64 %27, 1
  %.not14 = icmp eq i64 %28, 0
  br i1 %.not14, label %29, label %lean_dec.exit

29:                                               ; preds = %lean_dec.exit11
  %30 = load i32, ptr %0, align 4, !tbaa !10
  %31 = icmp sgt i32 %30, 1
  br i1 %31, label %32, label %34, !prof !15

32:                                               ; preds = %29
  %33 = add nsw i32 %30, -1
  store i32 %33, ptr %0, align 4, !tbaa !10
  br label %lean_dec.exit

34:                                               ; preds = %29
  %.not.i12 = icmp eq i32 %30, 0
  br i1 %.not.i12, label %lean_dec.exit, label %35

35:                                               ; preds = %34
  tail call void @lean_dec_ref_cold(ptr noundef nonnull %0) #3
  br label %lean_dec.exit

lean_dec.exit:                                    ; preds = %35, %34, %32, %lean_dec.exit11
  ret ptr %17
}